target datalayout = "e-m:e-p270:32:32-p271:32:32-p272:64:64-i64:64-i128:128-f80:128-n8:16:32:64-S128"
target triple = "x86_64-pc-linux-gnu"

%struct._zend_llist = type { ptr, ptr, i64, i64, ptr, i8, ptr }
%struct._zend_executor_globals = type { %struct._zval_struct, %struct._zval_struct, [32 x ptr], ptr, ptr, %struct._zend_array, %struct._zend_array, ptr, i32, i8, %struct._zval_struct, i32, ptr, ptr, ptr, ptr, ptr, ptr, i64, ptr, ptr, i32, ptr, i32, i64, i32, i32, i32, i8, i8, %struct.zend_atomic_bool_s, %struct.zend_atomic_bool_s, ptr, i64, ptr, ptr, %struct._zend_array, %struct._zend_array, i32, i8, %struct._zval_struct, %struct._zval_struct, %struct._zend_stack, %struct._zend_stack, %struct._zend_stack, ptr, i32, i32, i64, ptr, ptr, ptr, %struct._zend_objects_store, %struct._zend_lazy_objects_store, ptr, ptr, ptr, [3 x %struct._zend_op], ptr, i8, i8, i64, i32, i32, ptr, [16 x %struct._HashTableIterator], ptr, %union._zend_function, %struct._zend_op, %struct._zend_array, i64, %struct.zend_get_gc_buffer, ptr, ptr, ptr, i64, i8, i32, ptr, ptr, i64, %struct._zend_call_stack, i64, i64, %struct._zend_strtod_state, [6 x ptr] }
%struct.zend_atomic_bool_s = type { i8 }
%struct._zval_struct = type { %union._zend_value, %union.anon, %union.anon.2 }
%union._zend_value = type { i64 }
%union.anon = type { i32 }
%union.anon.2 = type { i32 }
%struct._zend_stack = type { i32, i32, i32, ptr }
%struct._zend_objects_store = type { ptr, i32, i32, i32 }
%struct._zend_lazy_objects_store = type { %struct._zend_array }
%struct._HashTableIterator = type { ptr, i32, i32 }
%union._zend_function = type { %struct._zend_op_array }
%struct._zend_op_array = type { i8, [3 x i8], i32, ptr, ptr, ptr, i32, i32, ptr, ptr, ptr, ptr, i32, ptr, i32, i32, i32, ptr, ptr, ptr, ptr, ptr, i32, i32, ptr, ptr, ptr, i32, i32, i32, i32, ptr, ptr, [6 x ptr] }
%struct._zend_op = type { ptr, %union._znode_op, %union._znode_op, %union._znode_op, i32, i32, i8, i8, i8, i8 }
%union._znode_op = type { i32 }
%struct._zend_array = type { %struct._zend_refcounted_h, %union.anon.4, i32, %union.anon.6, i32, i32, i32, i32, i64, ptr }
%struct._zend_refcounted_h = type { i32, %union.anon.3 }
%union.anon.3 = type { i32 }
%union.anon.4 = type { i32 }
%union.anon.6 = type { ptr }
%struct.zend_get_gc_buffer = type { ptr, ptr, ptr }
%struct._zend_call_stack = type { ptr, i64 }
%struct._zend_strtod_state = type { [8 x ptr], ptr, ptr }
%struct._zend_compiler_globals = type { %struct._zend_stack, ptr, ptr, i32, ptr, ptr, ptr, ptr, i8, i8, i8, i8, i8, %struct._zend_llist, ptr, i8, i8, i8, i8, ptr, i32, i32, %struct._zend_oparray_context, %struct._zend_file_context, ptr, %struct._zend_array, ptr, i64, i8, i8, i8, ptr, ptr, %struct._zend_stack, ptr, i32, ptr, ptr, i64, i64, ptr, ptr, ptr, ptr, i32, ptr, i32, %struct._zend_stack }
%struct._zend_oparray_context = type { ptr, ptr, i32, i32, i32, i32, i32, i32, i32, ptr, ptr, ptr, i32, i8 }
%struct._zend_file_context = type { %struct._zend_declarables, ptr, i8, i8, ptr, ptr, ptr, %struct._zend_array }
%struct._zend_declarables = type { i64 }
%struct.anon.7 = type { i8, [3 x i8], i32, ptr, ptr, ptr, i32, i32, ptr, ptr, ptr, ptr, i32, ptr }
%struct._zend_execute_data = type { ptr, ptr, ptr, ptr, %struct._zval_struct, ptr, ptr, ptr, ptr }

@zend_observers_fcall_list = internal global %struct._zend_llist zeroinitializer, align 8
@zend_observer_fcall_op_array_extension = dso_local global i32 0, align 4
@zend_observer_fcall_internal_function_extension = dso_local global i32 0, align 4
@executor_globals = external global %struct._zend_executor_globals, align 8
@compiler_globals = external global %struct._zend_compiler_globals, align 8

; Function Attrs: inlinehint nounwind uwtable
define internal ptr @prev_observed_frame(ptr noundef %0) #7 {
  %2 = alloca ptr, align 8
  %3 = alloca ptr, align 8
  store ptr %0, ptr %2, align 8, !tbaa !77
  call void @llvm.lifetime.start.p0(i64 8, ptr %3) #8
  %4 = load ptr, ptr %2, align 8, !tbaa !77
  %5 = getelementptr inbounds nuw %struct._zend_execute_data, ptr %4, i32 0, i32 3
  %6 = load ptr, ptr %5, align 8, !tbaa !80
  store ptr %6, ptr %3, align 8, !tbaa !75
  %7 = load ptr, ptr %3, align 8, !tbaa !75
  %8 = icmp ne ptr %7, null
  call void @llvm.assume(i1 %8)
  %9 = load ptr, ptr %2, align 8, !tbaa !77
  %10 = load ptr, ptr %3, align 8, !tbaa !75
  %11 = load i8, ptr %10, align 8, !tbaa !35
  %12 = zext i8 %11 to i32
  %13 = icmp ne i32 %12, 1
  br i1 %13, label %14, label %18

14:                                               ; preds = %1
  %15 = load ptr, ptr %3, align 8, !tbaa !75
  %16 = getelementptr inbounds nuw %struct._zend_op_array, ptr %15, i32 0, i32 15
  %17 = load i32, ptr %16, align 4, !tbaa !35
  br label %23

18:                                               ; preds = %1
  %19 = load ptr, ptr %2, align 8, !tbaa !77
  %20 = getelementptr inbounds nuw %struct._zend_execute_data, ptr %19, i32 0, i32 4
  %21 = getelementptr inbounds nuw %struct._zval_struct, ptr %20, i32 0, i32 2
  %22 = load i32, ptr %21, align 4, !tbaa !35
  br label %23

23:                                               ; preds = %18, %14
  %24 = phi i32 [ %17, %14 ], [ %22, %18 ]
  %25 = load ptr, ptr %3, align 8, !tbaa !75
  %26 = getelementptr inbounds nuw %struct.anon.7, ptr %25, i32 0, i32 12
  %27 = load i32, ptr %26, align 8, !tbaa !35
  %28 = add i32 %24, %27
  %29 = sub i32 %28, 1
  %30 = add nsw i32 5, %29
  %31 = sext i32 %30 to i64
  %32 = getelementptr inbounds %struct._zval_struct, ptr %9, i64 %31
  %33 = getelementptr inbounds nuw %struct._zval_struct, ptr %32, i32 0, i32 0
  call void @llvm.lifetime.end.p0(i64 8, ptr %3) #8
  ret ptr %33
}

; Function Attrs: inlinehint nounwind uwtable
define internal void @call_end_observers(ptr noundef %0, ptr noundef %1) #7 {
  %3 = alloca ptr, align 8
  %4 = alloca ptr, align 8
  %5 = alloca ptr, align 8
  %6 = alloca ptr, align 8
  %7 = alloca i32, align 4
  %8 = alloca ptr, align 8
  store ptr %0, ptr %3, align 8, !tbaa !77
  store ptr %1, ptr %4, align 8, !tbaa !37
  call void @llvm.lifetime.start.p0(i64 8, ptr %5) #8
  %9 = load ptr, ptr %3, align 8, !tbaa !77
  %10 = getelementptr inbounds nuw %struct._zend_execute_data, ptr %9, i32 0, i32 3
  %11 = load ptr, ptr %10, align 8, !tbaa !80
  store ptr %11, ptr %5, align 8, !tbaa !75
  %12 = load ptr, ptr %5, align 8, !tbaa !75
  %13 = icmp ne ptr %12, null
  call void @llvm.assume(i1 %13)
  call void @llvm.lifetime.start.p0(i64 8, ptr %6) #8
  %14 = load ptr, ptr %5, align 8, !tbaa !75
  %15 = getelementptr inbounds nuw %struct.anon.7, ptr %14, i32 0, i32 10
  %16 = load ptr, ptr %15, align 8, !tbaa !35
  %17 = ptrtoint ptr %16 to i64
  %18 = and i64 %17, 1
  %19 = icmp ne i64 %18, 0
  br i1 %19, label %20, label %28

20:                                               ; preds = %2
  %21 = load ptr, ptr getelementptr inbounds nuw (%struct._zend_compiler_globals, ptr @compiler_globals, i32 0, i32 37), align 8, !tbaa !76
  %22 = load ptr, ptr %5, align 8, !tbaa !75
  %23 = getelementptr inbounds nuw %struct.anon.7, ptr %22, i32 0, i32 10
  %24 = load ptr, ptr %23, align 8, !tbaa !35
  %25 = ptrtoint ptr %24 to i64
  %26 = getelementptr inbounds i8, ptr %21, i64 %25
  %27 = load ptr, ptr %26, align 8, !tbaa !4
  br label %32

28:                                               ; preds = %2
  %29 = load ptr, ptr %5, align 8, !tbaa !75
  %30 = getelementptr inbounds nuw %struct.anon.7, ptr %29, i32 0, i32 10
  %31 = load ptr, ptr %30, align 8, !tbaa !35
  br label %32

32:                                               ; preds = %28, %20
  %33 = phi ptr [ %27, %20 ], [ %31, %28 ]
  %34 = load ptr, ptr %5, align 8, !tbaa !75
  %35 = load i8, ptr %34, align 8, !tbaa !35
  %36 = zext i8 %35 to i32
  %37 = icmp ne i32 %36, 1
  br i1 %37, label %38, label %40

38:                                               ; preds = %32
  %39 = load i32, ptr @zend_observer_fcall_op_array_extension, align 4, !tbaa !8
  br label %42

40:                                               ; preds = %32
  %41 = load i32, ptr @zend_observer_fcall_internal_function_extension, align 4, !tbaa !8
  br label %42

42:                                               ; preds = %40, %38
  %43 = phi i32 [ %39, %38 ], [ %41, %40 ]
  %44 = sext i32 %43 to i64
  %45 = getelementptr inbounds ptr, ptr %33, i64 %44
  %46 = load i64, ptr getelementptr inbounds nuw (%struct._zend_llist, ptr @zend_observers_fcall_list, i32 0, i32 2), align 8, !tbaa !10
  %47 = getelementptr inbounds nuw ptr, ptr %45, i64 %46
  store ptr %47, ptr %6, align 8, !tbaa !4
  %48 = load ptr, ptr %6, align 8, !tbaa !4
  %49 = load ptr, ptr %48, align 8, !tbaa !4
  %50 = icmp ne ptr %49, null
  br i1 %50, label %51, label %55

51:                                               ; preds = %42
  %52 = load ptr, ptr %6, align 8, !tbaa !4
  %53 = load ptr, ptr %52, align 8, !tbaa !4
  %54 = icmp eq ptr %53, inttoptr (i64 2 to ptr)
  br i1 %54, label %55, label %56

55:                                               ; preds = %51, %42
  store i32 1, ptr %7, align 4
  br label %77

56:                                               ; preds = %51
  call void @llvm.lifetime.start.p0(i64 8, ptr %8) #8
  %57 = load ptr, ptr %6, align 8, !tbaa !4
  %58 = load i64, ptr getelementptr inbounds nuw (%struct._zend_llist, ptr @zend_observers_fcall_list, i32 0, i32 2), align 8, !tbaa !10
  %59 = getelementptr inbounds nuw ptr, ptr %57, i64 %58
  store ptr %59, ptr %8, align 8, !tbaa !4
  br label %60

60:                                               ; preds = %74, %56
  %61 = load ptr, ptr %6, align 8, !tbaa !4
  %62 = load ptr, ptr %61, align 8, !tbaa !4
  %63 = load ptr, ptr %3, align 8, !tbaa !77
  %64 = load ptr, ptr %4, align 8, !tbaa !37
  call void %62(ptr noundef %63, ptr noundef %64)
  br label %65

65:                                               ; preds = %60
  %66 = load ptr, ptr %6, align 8, !tbaa !4
  %67 = getelementptr inbounds nuw ptr, ptr %66, i32 1
  store ptr %67, ptr %6, align 8, !tbaa !4
  %68 = load ptr, ptr %8, align 8, !tbaa !4
  %69 = icmp ne ptr %67, %68
  br i1 %69, label %70, label %74

70:                                               ; preds = %65
  %71 = load ptr, ptr %6, align 8, !tbaa !4
  %72 = load ptr, ptr %71, align 8, !tbaa !4
  %73 = icmp ne ptr %72, null
  br label %74

74:                                               ; preds = %70, %65
  %75 = phi i1 [ false, %65 ], [ %73, %70 ]
  br i1 %75, label %60, label %76

76:                                               ; preds = %74
  call void @llvm.lifetime.end.p0(i64 8, ptr %8) #8
  store i32 0, ptr %7, align 4
  br label %77

77:                                               ; preds = %76, %55
  call void @llvm.lifetime.end.p0(i64 8, ptr %6) #8
  call void @llvm.lifetime.end.p0(i64 8, ptr %5) #8
  %78 = load i32, ptr %7, align 4
  switch i32 %78, label %80 [
    i32 0, label %79
    i32 1, label %79
  ]

79:                                               ; preds = %77, %77
  ret void

80:                                               ; preds = %77
  unreachable
}

; Function Attrs: nounwind uwtable
define dso_local void @zend_observer_fcall_end_all() #0 {
  %1 = alloca ptr, align 8
  %2 = alloca ptr, align 8
  call void @llvm.lifetime.start.p0(i64 8, ptr %1) #8
  %3 = load ptr, ptr getelementptr inbounds nuw (%struct._zend_executor_globals, ptr @executor_globals, i32 0, i32 22), align 8, !tbaa !51
  store ptr %3, ptr %1, align 8, !tbaa !77
  call void @llvm.lifetime.start.p0(i64 8, ptr %2) #8
  %4 = load ptr, ptr getelementptr inbounds nuw (%struct._zend_executor_globals, ptr @executor_globals, i32 0, i32 19), align 8, !tbaa !92
  store ptr %4, ptr %2, align 8, !tbaa !77
  store ptr null, ptr getelementptr inbounds nuw (%struct._zend_executor_globals, ptr @executor_globals, i32 0, i32 22), align 8, !tbaa !51
  br label %5

5:                                                ; preds = %8, %0
  %6 = load ptr, ptr %1, align 8, !tbaa !77
  %7 = icmp ne ptr %6, null
  br i1 %7, label %8, label %14

8:                                                ; preds = %5
  %9 = load ptr, ptr %1, align 8, !tbaa !77
  store ptr %9, ptr getelementptr inbounds nuw (%struct._zend_executor_globals, ptr @executor_globals, i32 0, i32 19), align 8, !tbaa !92
  %10 = load ptr, ptr %1, align 8, !tbaa !77
  call void @call_end_observers(ptr noundef %10, ptr noundef null)
  %11 = load ptr, ptr %1, align 8, !tbaa !77
  %12 = call ptr @prev_observed_frame(ptr noundef %11)
  %13 = load ptr, ptr %12, align 8, !tbaa !77
  store ptr %13, ptr %1, align 8, !tbaa !77
  br label %5

14:                                               ; preds = %5
  %15 = load ptr, ptr %2, align 8, !tbaa !77
  store ptr %15, ptr getelementptr inbounds nuw (%struct._zend_executor_globals, ptr @executor_globals, i32 0, i32 19), align 8, !tbaa !92
  call void @llvm.lifetime.end.p0(i64 8, ptr %2) #8
  call void @llvm.lifetime.end.p0(i64 8, ptr %1) #8
  ret void
}